target datalayout = "e-m:e-p270:32:32-p271:32:32-p272:64:64-i64:64-i128:128-f80:128-n8:16:32:64-S128"
target triple = "x86_64-pc-linux-gnu"

; Function Attrs: nounwind uwtable
define internal ptr @unpack_double(ptr noundef %0, i32 noundef %1) #0 {
  %3 = alloca ptr, align 8
  %4 = alloca ptr, align 8
  %5 = alloca i32, align 4
  %6 = alloca double, align 8
  %7 = alloca i32, align 4
  store ptr %0, ptr %4, align 8, !tbaa !43
  store i32 %1, ptr %5, align 4, !tbaa !11
  call void @llvm.lifetime.start.p0(i64 8, ptr %6) #8
  %8 = load ptr, ptr %4, align 8, !tbaa !43
  %9 = load i32, ptr %5, align 4, !tbaa !11
  %10 = call double @PyFloat_Unpack8(ptr noundef %8, i32 noundef %9)
  store double %10, ptr %6, align 8, !tbaa !99
  %11 = load double, ptr %6, align 8, !tbaa !99
  %12 = fcmp oeq double %11, -1.000000e+00
  br i1 %12, label %13, label %17

13:                                               ; preds = %2
  %14 = call ptr @PyErr_Occurred()
  %15 = icmp ne ptr %14, null
  br i1 %15, label %16, label %17

16:                                               ; preds = %13
  store ptr null, ptr %3, align 8
  store i32 1, ptr %7, align 4
  br label %20

17:                                               ; preds = %13, %2
  %18 = load double, ptr %6, align 8, !tbaa !99
  %19 = call ptr @PyFloat_FromDouble(double noundef %18)
  store ptr %19, ptr %3, align 8
  store i32 1, ptr %7, align 4
  br label %20

20:                                               ; preds = %17, %16
  call void @llvm.lifetime.end.p0(i64 8, ptr %6) #8
  %21 = load ptr, ptr %3, align 8
  ret ptr %21
}

; Function Attrs: nounwind uwtable
define internal ptr @bu_double(ptr noundef %0, ptr noundef %1, ptr noundef %2) #0 {
  %4 = alloca ptr, align 8
  %5 = alloca ptr, align 8
  %6 = alloca ptr, align 8
  store ptr %0, ptr %4, align 8, !tbaa !8
  store ptr %1, ptr %5, align 8, !tbaa !43
  store ptr %2, ptr %6, align 8, !tbaa !49
  %7 = load ptr, ptr %5, align 8, !tbaa !43
  %8 = call ptr @unpack_double(ptr noundef %7, i32 noundef 0)
  ret ptr %8
}